target datalayout = "e-m:e-p270:32:32-p271:32:32-p272:64:64-i64:64-i128:128-f80:128-n8:16:32:64-S128"
target triple = "x86_64-pc-linux-gnu"

; Function Attrs: mustprogress uwtable
define void @ulocbld_adoptULocale_77(ptr noundef %0, ptr noundef %1) #1 {
  %3 = alloca ptr, align 8
  %4 = alloca ptr, align 8
  store ptr %0, ptr %3, align 8, !tbaa !23
  store ptr %1, ptr %4, align 8, !tbaa !28
  %5 = load ptr, ptr %3, align 8, !tbaa !23
  %6 = icmp eq ptr %5, null
  br i1 %6, label %7, label %8

7:                                                ; preds = %2
  br label %13

8:                                                ; preds = %2
  %9 = load ptr, ptr %3, align 8, !tbaa !23
  %10 = load ptr, ptr %4, align 8, !tbaa !28
  %11 = call noundef nonnull align 8 dereferenceable(48) ptr @_ZN6icu_7713LocaleBuilder9setLocaleERKNS_6LocaleE(ptr noundef nonnull align 8 dereferenceable(48) %9, ptr noundef nonnull align 8 dereferenceable(217) %10)
  %12 = load ptr, ptr %4, align 8, !tbaa !28
  call void @ulocale_close_77(ptr noundef %12)
  br label %13

13:                                               ; preds = %8, %7
  ret void
}