; Function Attrs: mustprogress uwtable
define void @ulocbld_adoptULocale_77(ptr noundef %0, ptr noundef %1) local_unnamed_addr #1 {
  %3 = icmp eq ptr %0, null
  br i1 %3, label %6, label %4

4:                                                ; preds = %2
  %5 = tail call noundef nonnull align 8 dereferenceable(48) ptr @_ZN6icu_7713LocaleBuilder9setLocaleERKNS_6LocaleE(ptr noundef nonnull align 8 dereferenceable(48) %0, ptr noundef nonnull align 8 dereferenceable(217) %1)
  tail call void @ulocale_close_77(ptr noundef nonnull %1)
  br label %6

6:                                                ; preds = %2, %4
  ret void
}